; Function Attrs: mustprogress nounwind uwtable
define hidden void @_ZN6Assimp11CompressionD2Ev(ptr nocapture noundef nonnull readonly align 8 dereferenceable(8) %this) unnamed_addr #3 align 2 personality ptr @__gxx_personality_v0 {
entry:
  %0 = load ptr, ptr %this, align 8
  %1 = load i8, ptr %0, align 8
  %2 = and i8 %1, 1
  %tobool.not = icmp eq i8 %2, 0
  br i1 %tobool.not, label %delete.notnull, label %if.end.i

if.end.i:                                         ; preds = %entry
  %mZSstream.i = getelementptr inbounds i8, ptr %0, i64 8
  %call.i1 = invoke i32 @inflateEnd(ptr noundef nonnull %mZSstream.i)
          to label %if.end unwind label %terminate.lpad

if.end:                                           ; preds = %if.end.i
  %3 = load ptr, ptr %this, align 8
  store i8 0, ptr %3, align 8
  %.pr = load ptr, ptr %this, align 8
  %isnull = icmp eq ptr %.pr, null
  br i1 %isnull, label %delete.end, label %delete.notnull

delete.notnull:                                   ; preds = %entry, %if.end
  %4 = phi ptr [ %.pr, %if.end ], [ %0, %entry ]
  tail call void @_ZdlPv(ptr noundef nonnull %4) #15
  br label %delete.end

delete.end:                                       ; preds = %delete.notnull, %if.end
  ret void

terminate.lpad:                                   ; preds = %if.end.i
  %5 = landingpad { ptr, i32 }
          catch ptr null
  %6 = extractvalue { ptr, i32 } %5, 0
  tail call void @__clang_call_terminate(ptr %6) #16
  unreachable
}